target datalayout = "e-m:e-p270:32:32-p271:32:32-p272:64:64-i64:64-i128:128-f80:128-n8:16:32:64-S128"
target triple = "x86_64-unknown-linux-gnu"

%"class.pugi::xml_node" = type { ptr }
%"class.pugi::xml_attribute" = type { ptr }
%"struct.pugi::xml_attribute_struct" = type { i64, ptr, ptr, ptr, ptr }
%"struct.pugi::impl::(anonymous namespace)::xml_memory_page" = type { ptr, ptr, ptr, i64, i64 }
%"struct.pugi::xml_node_struct" = type { i64, ptr, ptr, ptr, ptr, ptr, ptr, ptr }

@_ZN4pugi13xml_attributeC1Ev = unnamed_addr alias void (ptr), ptr @_ZN4pugi13xml_attributeC2Ev
@_ZN4pugi13xml_attributeC1EPNS_20xml_attribute_structE = unnamed_addr alias void (ptr, ptr), ptr @_ZN4pugi13xml_attributeC2EPNS_20xml_attribute_structE

; Function Attrs: mustprogress nounwind uwtable
define internal void @_ZN4pugi4impl12_GLOBAL__N_116remove_attributeEPNS_20xml_attribute_structEPNS_15xml_node_structE(ptr noundef %attr, ptr noundef %node) #0 {
entry:
  %attr.addr = alloca ptr, align 8
  %node.addr = alloca ptr, align 8
  %next = alloca ptr, align 8
  %prev = alloca ptr, align 8
  store ptr %attr, ptr %attr.addr, align 8
  store ptr %node, ptr %node.addr, align 8
  %0 = load ptr, ptr %attr.addr, align 8
  %next_attribute = getelementptr inbounds %"struct.pugi::xml_attribute_struct", ptr %0, i32 0, i32 4
  %1 = load ptr, ptr %next_attribute, align 8
  store ptr %1, ptr %next, align 8
  %2 = load ptr, ptr %attr.addr, align 8
  %prev_attribute_c = getelementptr inbounds %"struct.pugi::xml_attribute_struct", ptr %2, i32 0, i32 3
  %3 = load ptr, ptr %prev_attribute_c, align 8
  store ptr %3, ptr %prev, align 8
  %4 = load ptr, ptr %next, align 8
  %tobool = icmp ne ptr %4, null
  br i1 %tobool, label %if.then, label %if.else

if.then:                                          ; preds = %entry
  %5 = load ptr, ptr %prev, align 8
  %6 = load ptr, ptr %next, align 8
  %prev_attribute_c1 = getelementptr inbounds %"struct.pugi::xml_attribute_struct", ptr %6, i32 0, i32 3
  store ptr %5, ptr %prev_attribute_c1, align 8
  br label %if.end

if.else:                                          ; preds = %entry
  %7 = load ptr, ptr %prev, align 8
  %8 = load ptr, ptr %node.addr, align 8
  %first_attribute = getelementptr inbounds %"struct.pugi::xml_node_struct", ptr %8, i32 0, i32 7
  %9 = load ptr, ptr %first_attribute, align 8
  %prev_attribute_c2 = getelementptr inbounds %"struct.pugi::xml_attribute_struct", ptr %9, i32 0, i32 3
  store ptr %7, ptr %prev_attribute_c2, align 8
  br label %if.end

if.end:                                           ; preds = %if.else, %if.then
  %10 = load ptr, ptr %prev, align 8
  %next_attribute3 = getelementptr inbounds %"struct.pugi::xml_attribute_struct", ptr %10, i32 0, i32 4
  %11 = load ptr, ptr %next_attribute3, align 8
  %tobool4 = icmp ne ptr %11, null
  br i1 %tobool4, label %if.then5, label %if.else7

if.then5:                                         ; preds = %if.end
  %12 = load ptr, ptr %next, align 8
  %13 = load ptr, ptr %prev, align 8
  %next_attribute6 = getelementptr inbounds %"struct.pugi::xml_attribute_struct", ptr %13, i32 0, i32 4
  store ptr %12, ptr %next_attribute6, align 8
  br label %if.end9

if.else7:                                         ; preds = %if.end
  %14 = load ptr, ptr %next, align 8
  %15 = load ptr, ptr %node.addr, align 8
  %first_attribute8 = getelementptr inbounds %"struct.pugi::xml_node_struct", ptr %15, i32 0, i32 7
  store ptr %14, ptr %first_attribute8, align 8
  br label %if.end9

if.end9:                                          ; preds = %if.else7, %if.then5
  %16 = load ptr, ptr %attr.addr, align 8
  %prev_attribute_c10 = getelementptr inbounds %"struct.pugi::xml_attribute_struct", ptr %16, i32 0, i32 3
  store ptr null, ptr %prev_attribute_c10, align 8
  %17 = load ptr, ptr %attr.addr, align 8
  %next_attribute11 = getelementptr inbounds %"struct.pugi::xml_attribute_struct", ptr %17, i32 0, i32 4
  store ptr null, ptr %next_attribute11, align 8
  ret void
}

; Function Attrs: mustprogress nounwind uwtable
define internal noundef zeroext i1 @_ZN4pugi4impl12_GLOBAL__N_113xml_allocator7reserveEv(ptr noundef nonnull align 8 dereferenceable(16) %this) #0 align 2 {
entry:
  %this.addr = alloca ptr, align 8
  store ptr %this, ptr %this.addr, align 8
  ret i1 true
}

; Function Attrs: mustprogress nounwind uwtable
define internal noundef nonnull align 8 dereferenceable(16) ptr @_ZN4pugi4impl12_GLOBAL__N_113get_allocatorINS_15xml_node_structEEERNS1_13xml_allocatorEPKT_(ptr noundef %object) #0 {
entry:
  %object.addr = alloca ptr, align 8
  store ptr %object, ptr %object.addr, align 8
  %0 = load ptr, ptr %object.addr, align 8
  %header = getelementptr inbounds %"struct.pugi::xml_node_struct", ptr %0, i32 0, i32 0
  %1 = load ptr, ptr %object.addr, align 8
  %header1 = getelementptr inbounds %"struct.pugi::xml_node_struct", ptr %1, i32 0, i32 0
  %2 = load i64, ptr %header1, align 8
  %shr = lshr i64 %2, 8
  %idx.neg = sub i64 0, %shr
  %add.ptr = getelementptr inbounds i8, ptr %header, i64 %idx.neg
  %allocator = getelementptr inbounds %"struct.pugi::impl::(anonymous namespace)::xml_memory_page", ptr %add.ptr, i32 0, i32 0
  %3 = load ptr, ptr %allocator, align 8
  ret ptr %3
}

; Function Attrs: mustprogress nounwind uwtable
define internal noundef zeroext i1 @_ZN4pugi4impl12_GLOBAL__N_115is_attribute_ofEPNS_20xml_attribute_structEPNS_15xml_node_structE(ptr noundef %attr, ptr noundef %node) #0 {
entry:
  %retval = alloca i1, align 1
  %attr.addr = alloca ptr, align 8
  %node.addr = alloca ptr, align 8
  %a = alloca ptr, align 8
  store ptr %attr, ptr %attr.addr, align 8
  store ptr %node, ptr %node.addr, align 8
  %0 = load ptr, ptr %node.addr, align 8
  %first_attribute = getelementptr inbounds %"struct.pugi::xml_node_struct", ptr %0, i32 0, i32 7
  %1 = load ptr, ptr %first_attribute, align 8
  store ptr %1, ptr %a, align 8
  br label %for.cond

for.cond:                                         ; preds = %for.inc, %entry
  %2 = load ptr, ptr %a, align 8
  %tobool = icmp ne ptr %2, null
  br i1 %tobool, label %for.body, label %for.end

for.body:                                         ; preds = %for.cond
  %3 = load ptr, ptr %a, align 8
  %4 = load ptr, ptr %attr.addr, align 8
  %cmp = icmp eq ptr %3, %4
  br i1 %cmp, label %if.then, label %if.end

if.then:                                          ; preds = %for.body
  store i1 true, ptr %retval, align 1
  br label %return

if.end:                                           ; preds = %for.body
  br label %for.inc

for.inc:                                          ; preds = %if.end
  %5 = load ptr, ptr %a, align 8
  %next_attribute = getelementptr inbounds %"struct.pugi::xml_attribute_struct", ptr %5, i32 0, i32 4
  %6 = load ptr, ptr %next_attribute, align 8
  store ptr %6, ptr %a, align 8
  br label %for.cond, !llvm.loop !12

for.end:                                          ; preds = %for.cond
  store i1 false, ptr %retval, align 1
  br label %return

return:                                           ; preds = %for.end, %if.then
  %7 = load i1, ptr %retval, align 1
  ret i1 %7
}

; Function Attrs: mustprogress nounwind uwtable
define internal noundef zeroext i1 @_ZN4pugi4impl12_GLOBAL__N_18strequalEPKcS3_(ptr noundef %src, ptr noundef %dst) #0 {
entry:
  %src.addr = alloca ptr, align 8
  %dst.addr = alloca ptr, align 8
  store ptr %src, ptr %src.addr, align 8
  store ptr %dst, ptr %dst.addr, align 8
  %0 = load ptr, ptr %src.addr, align 8
  %1 = load ptr, ptr %dst.addr, align 8
  %call = call i32 @strcmp(ptr noundef %0, ptr noundef %1) #15
  %cmp = icmp eq i32 %call, 0
  ret i1 %cmp
}

; Function Attrs: mustprogress uwtable
define noundef zeroext i1 @_ZN4pugi8xml_node16remove_attributeERKNS_13xml_attributeE(ptr noundef nonnull align 8 dereferenceable(8) %this, ptr noundef nonnull align 8 dereferenceable(8) %a) #2 align 2 {
entry:
  %retval = alloca i1, align 1
  %this.addr = alloca ptr, align 8
  %a.addr = alloca ptr, align 8
  %alloc = alloca ptr, align 8
  store ptr %this, ptr %this.addr, align 8
  store ptr %a, ptr %a.addr, align 8
  %this1 = load ptr, ptr %this.addr, align 8
  %_root = getelementptr inbounds %"class.pugi::xml_node", ptr %this1, i32 0, i32 0
  %0 = load ptr, ptr %_root, align 8
  %tobool = icmp ne ptr %0, null
  br i1 %tobool, label %lor.lhs.false, label %if.then

lor.lhs.false:                                    ; preds = %entry
  %1 = load ptr, ptr %a.addr, align 8
  %_attr = getelementptr inbounds %"class.pugi::xml_attribute", ptr %1, i32 0, i32 0
  %2 = load ptr, ptr %_attr, align 8
  %tobool2 = icmp ne ptr %2, null
  br i1 %tobool2, label %if.end, label %if.then

if.then:                                          ; preds = %lor.lhs.false, %entry
  store i1 false, ptr %retval, align 1
  br label %return

if.end:                                           ; preds = %lor.lhs.false
  %3 = load ptr, ptr %a.addr, align 8
  %_attr3 = getelementptr inbounds %"class.pugi::xml_attribute", ptr %3, i32 0, i32 0
  %4 = load ptr, ptr %_attr3, align 8
  %_root4 = getelementptr inbounds %"class.pugi::xml_node", ptr %this1, i32 0, i32 0
  %5 = load ptr, ptr %_root4, align 8
  %call = call noundef zeroext i1 @_ZN4pugi4impl12_GLOBAL__N_115is_attribute_ofEPNS_20xml_attribute_structEPNS_15xml_node_structE(ptr noundef %4, ptr noundef %5)
  br i1 %call, label %if.end6, label %if.then5

if.then5:                                         ; preds = %if.end
  store i1 false, ptr %retval, align 1
  br label %return

if.end6:                                          ; preds = %if.end
  %_root7 = getelementptr inbounds %"class.pugi::xml_node", ptr %this1, i32 0, i32 0
  %6 = load ptr, ptr %_root7, align 8
  %call8 = call noundef nonnull align 8 dereferenceable(16) ptr @_ZN4pugi4impl12_GLOBAL__N_113get_allocatorINS_15xml_node_structEEERNS1_13xml_allocatorEPKT_(ptr noundef %6)
  store ptr %call8, ptr %alloc, align 8
  %7 = load ptr, ptr %alloc, align 8
  %call9 = call noundef zeroext i1 @_ZN4pugi4impl12_GLOBAL__N_113xml_allocator7reserveEv(ptr noundef nonnull align 8 dereferenceable(16) %7)
  br i1 %call9, label %if.end11, label %if.then10

if.then10:                                        ; preds = %if.end6
  store i1 false, ptr %retval, align 1
  br label %return

if.end11:                                         ; preds = %if.end6
  %8 = load ptr, ptr %a.addr, align 8
  %_attr12 = getelementptr inbounds %"class.pugi::xml_attribute", ptr %8, i32 0, i32 0
  %9 = load ptr, ptr %_attr12, align 8
  %_root13 = getelementptr inbounds %"class.pugi::xml_node", ptr %this1, i32 0, i32 0
  %10 = load ptr, ptr %_root13, align 8
  call void @_ZN4pugi4impl12_GLOBAL__N_116remove_attributeEPNS_20xml_attribute_structEPNS_15xml_node_structE(ptr noundef %9, ptr noundef %10)
  %11 = load ptr, ptr %a.addr, align 8
  %_attr14 = getelementptr inbounds %"class.pugi::xml_attribute", ptr %11, i32 0, i32 0
  %12 = load ptr, ptr %_attr14, align 8
  %13 = load ptr, ptr %alloc, align 8
  call void @_ZN4pugi4impl12_GLOBAL__N_117destroy_attributeEPNS_20xml_attribute_structERNS1_13xml_allocatorE(ptr noundef %12, ptr noundef nonnull align 8 dereferenceable(16) %13)
  store i1 true, ptr %retval, align 1
  br label %return

return:                                           ; preds = %if.end11, %if.then10, %if.then5, %if.then
  %14 = load i1, ptr %retval, align 1
  ret i1 %14
}

; Function Attrs: mustprogress uwtable
define ptr @_ZNK4pugi8xml_node9attributeEPKc(ptr noundef nonnull align 8 dereferenceable(8) %this, ptr noundef %name_) #2 align 2 {
entry:
  %retval = alloca %"class.pugi::xml_attribute", align 8
  %this.addr = alloca ptr, align 8
  %name_.addr = alloca ptr, align 8
  %i = alloca ptr, align 8
  %iname = alloca ptr, align 8
  store ptr %this, ptr %this.addr, align 8
  store ptr %name_, ptr %name_.addr, align 8
  %this1 = load ptr, ptr %this.addr, align 8
  %_root = getelementptr inbounds %"class.pugi::xml_node", ptr %this1, i32 0, i32 0
  %0 = load ptr, ptr %_root, align 8
  %tobool = icmp ne ptr %0, null
  br i1 %tobool, label %if.end, label %if.then

if.then:                                          ; preds = %entry
  call void @_ZN4pugi13xml_attributeC1Ev(ptr noundef nonnull align 8 dereferenceable(8) %retval)
  br label %return

if.end:                                           ; preds = %entry
  %_root2 = getelementptr inbounds %"class.pugi::xml_node", ptr %this1, i32 0, i32 0
  %1 = load ptr, ptr %_root2, align 8
  %first_attribute = getelementptr inbounds %"struct.pugi::xml_node_struct", ptr %1, i32 0, i32 7
  %2 = load ptr, ptr %first_attribute, align 8
  store ptr %2, ptr %i, align 8
  br label %for.cond

for.cond:                                         ; preds = %for.inc, %if.end
  %3 = load ptr, ptr %i, align 8
  %tobool3 = icmp ne ptr %3, null
  br i1 %tobool3, label %for.body, label %for.end

for.body:                                         ; preds = %for.cond
  %4 = load ptr, ptr %i, align 8
  %name = getelementptr inbounds %"struct.pugi::xml_attribute_struct", ptr %4, i32 0, i32 1
  %5 = load ptr, ptr %name, align 8
  store ptr %5, ptr %iname, align 8
  %6 = load ptr, ptr %iname, align 8
  %tobool4 = icmp ne ptr %6, null
  br i1 %tobool4, label %land.lhs.true, label %if.end6

land.lhs.true:                                    ; preds = %for.body
  %7 = load ptr, ptr %name_.addr, align 8
  %8 = load ptr, ptr %iname, align 8
  %call = call noundef zeroext i1 @_ZN4pugi4impl12_GLOBAL__N_18strequalEPKcS3_(ptr noundef %7, ptr noundef %8)
  br i1 %call, label %if.then5, label %if.end6

if.then5:                                         ; preds = %land.lhs.true
  %9 = load ptr, ptr %i, align 8
  call void @_ZN4pugi13xml_attributeC1EPNS_20xml_attribute_structE(ptr noundef nonnull align 8 dereferenceable(8) %retval, ptr noundef %9)
  br label %return

if.end6:                                          ; preds = %land.lhs.true, %for.body
  br label %for.inc

for.inc:                                          ; preds = %if.end6
  %10 = load ptr, ptr %i, align 8
  %next_attribute = getelementptr inbounds %"struct.pugi::xml_attribute_struct", ptr %10, i32 0, i32 4
  %11 = load ptr, ptr %next_attribute, align 8
  store ptr %11, ptr %i, align 8
  br label %for.cond, !llvm.loop !6

for.end:                                          ; preds = %for.cond
  call void @_ZN4pugi13xml_attributeC1Ev(ptr noundef nonnull align 8 dereferenceable(8) %retval)
  br label %return

return:                                           ; preds = %for.end, %if.then5, %if.then
  %coerce.dive = getelementptr inbounds %"class.pugi::xml_attribute", ptr %retval, i32 0, i32 0
  %12 = load ptr, ptr %coerce.dive, align 8
  ret ptr %12
}

; Function Attrs: mustprogress uwtable
define noundef zeroext i1 @_ZN4pugi8xml_node16remove_attributeEPKc(ptr noundef nonnull align 8 dereferenceable(8) %this, ptr noundef %name_) #2 align 2 {
entry:
  %this.addr = alloca ptr, align 8
  %name_.addr = alloca ptr, align 8
  %ref.tmp = alloca %"class.pugi::xml_attribute", align 8
  store ptr %this, ptr %this.addr, align 8
  store ptr %name_, ptr %name_.addr, align 8
  %this1 = load ptr, ptr %this.addr, align 8
  %0 = load ptr, ptr %name_.addr, align 8
  %call = call ptr @_ZNK4pugi8xml_node9attributeEPKc(ptr noundef nonnull align 8 dereferenceable(8) %this1, ptr noundef %0)
  %coerce.dive = getelementptr inbounds %"class.pugi::xml_attribute", ptr %ref.tmp, i32 0, i32 0
  store ptr %call, ptr %coerce.dive, align 8
  %call2 = call noundef zeroext i1 @_ZN4pugi8xml_node16remove_attributeERKNS_13xml_attributeE(ptr noundef nonnull align 8 dereferenceable(8) %this1, ptr noundef nonnull align 8 dereferenceable(8) %ref.tmp)
  ret i1 %call2
}