; Function Attrs: mustprogress uwtable
define noundef zeroext i1 @_ZN4pugi8xml_node16remove_attributeEPKc(ptr nocapture noundef nonnull readonly align 8 dereferenceable(8) %this, ptr nocapture noundef readonly %name_) local_unnamed_addr #6 align 2 {
entry:
  %retval.i = alloca %"class.pugi::xml_attribute", align 8
  call void @llvm.lifetime.start.p0(i64 8, ptr nonnull %retval.i)
  %0 = load ptr, ptr %this, align 8
  %tobool.not.i = icmp eq ptr %0, null
  br i1 %tobool.not.i, label %if.then.i, label %if.end.i

if.then.i:                                        ; preds = %entry
  call void @_ZN4pugi13xml_attributeC1Ev(ptr noundef nonnull align 8 dereferenceable(8) %retval.i)
  br label %_ZNK4pugi8xml_node9attributeEPKc.exit

if.end.i:                                         ; preds = %entry
  %first_attribute.i = getelementptr inbounds i8, ptr %0, i64 56
  %i.07.i = load ptr, ptr %first_attribute.i, align 8
  %tobool3.not8.i = icmp eq ptr %i.07.i, null
  br i1 %tobool3.not8.i, label %for.end.i, label %for.body.i

for.body.i:                                       ; preds = %if.end.i, %for.inc.i
  %i.09.i = phi ptr [ %i.0.i, %for.inc.i ], [ %i.07.i, %if.end.i ]
  %name.i = getelementptr inbounds i8, ptr %i.09.i, i64 8
  %1 = load ptr, ptr %name.i, align 8
  %tobool4.not.i = icmp eq ptr %1, null
  br i1 %tobool4.not.i, label %for.inc.i, label %land.lhs.true.i

land.lhs.true.i:                                  ; preds = %for.body.i
  %call.i.i = tail call i32 @strcmp(ptr noundef nonnull dereferenceable(1) %name_, ptr noundef nonnull dereferenceable(1) %1) #43
  %cmp.i.i = icmp eq i32 %call.i.i, 0
  br i1 %cmp.i.i, label %if.then5.i, label %for.inc.i

if.then5.i:                                       ; preds = %land.lhs.true.i
  call void @_ZN4pugi13xml_attributeC1EPNS_20xml_attribute_structE(ptr noundef nonnull align 8 dereferenceable(8) %retval.i, ptr noundef nonnull %i.09.i)
  br label %_ZNK4pugi8xml_node9attributeEPKc.exit

for.inc.i:                                        ; preds = %land.lhs.true.i, %for.body.i
  %next_attribute.i = getelementptr inbounds i8, ptr %i.09.i, i64 32
  %i.0.i = load ptr, ptr %next_attribute.i, align 8
  %tobool3.not.i = icmp eq ptr %i.0.i, null
  br i1 %tobool3.not.i, label %for.end.i, label %for.body.i, !llvm.loop !9

for.end.i:                                        ; preds = %for.inc.i, %if.end.i
  call void @_ZN4pugi13xml_attributeC1Ev(ptr noundef nonnull align 8 dereferenceable(8) %retval.i)
  br label %_ZNK4pugi8xml_node9attributeEPKc.exit

_ZNK4pugi8xml_node9attributeEPKc.exit:            ; preds = %if.then.i, %if.then5.i, %for.end.i
  %2 = load ptr, ptr %retval.i, align 8
  call void @llvm.lifetime.end.p0(i64 8, ptr nonnull %retval.i)
  %3 = load ptr, ptr %this, align 8
  %tobool.not.i1 = icmp eq ptr %3, null
  %tobool2.not.i = icmp eq ptr %2, null
  %or.cond = select i1 %tobool.not.i1, i1 true, i1 %tobool2.not.i
  br i1 %or.cond, label %_ZN4pugi8xml_node16remove_attributeERKNS_13xml_attributeE.exit, label %if.end.i2

if.end.i2:                                        ; preds = %_ZNK4pugi8xml_node9attributeEPKc.exit
  %first_attribute.i.i = getelementptr inbounds i8, ptr %3, i64 56
  br label %for.cond.i.i

for.cond.i.i:                                     ; preds = %for.cond.i.i, %if.end.i2
  %a.0.in.i.i = phi ptr [ %first_attribute.i.i, %if.end.i2 ], [ %next_attribute.i.i, %for.cond.i.i ]
  %a.0.i.i = load ptr, ptr %a.0.in.i.i, align 8
  %tobool.not.i.i = icmp ne ptr %a.0.i.i, null
  %cmp.i.i3 = icmp ne ptr %a.0.i.i, %2
  %or.cond.not.i.i = and i1 %cmp.i.i3, %tobool.not.i.i
  %next_attribute.i.i = getelementptr inbounds i8, ptr %a.0.i.i, i64 32
  br i1 %or.cond.not.i.i, label %for.cond.i.i, label %_ZN4pugi4impl12_GLOBAL__N_115is_attribute_ofEPNS_20xml_attribute_structEPNS_15xml_node_structE.exit.i, !llvm.loop !16

_ZN4pugi4impl12_GLOBAL__N_115is_attribute_ofEPNS_20xml_attribute_structEPNS_15xml_node_structE.exit.i: ; preds = %for.cond.i.i
  br i1 %tobool.not.i.i, label %if.end6.i, label %_ZN4pugi8xml_node16remove_attributeERKNS_13xml_attributeE.exit

if.end6.i:                                        ; preds = %_ZN4pugi4impl12_GLOBAL__N_115is_attribute_ofEPNS_20xml_attribute_structEPNS_15xml_node_structE.exit.i
  %4 = load i64, ptr %3, align 8
  %shr.i.i = lshr i64 %4, 8
  %idx.neg.i.i = sub nsw i64 0, %shr.i.i
  %add.ptr.i.i = getelementptr inbounds i8, ptr %3, i64 %idx.neg.i.i
  %5 = load ptr, ptr %add.ptr.i.i, align 8
  %next_attribute.i6.i = getelementptr inbounds i8, ptr %2, i64 32
  %6 = load ptr, ptr %next_attribute.i6.i, align 8
  %prev_attribute_c.i.i = getelementptr inbounds i8, ptr %2, i64 24
  %7 = load ptr, ptr %prev_attribute_c.i.i, align 8
  %tobool.not.i7.i = icmp eq ptr %6, null
  br i1 %tobool.not.i7.i, label %if.else.i.i, label %_ZN4pugi4impl12_GLOBAL__N_116remove_attributeEPNS_20xml_attribute_structEPNS_15xml_node_structE.exit.i

if.else.i.i:                                      ; preds = %if.end6.i
  %8 = load ptr, ptr %first_attribute.i.i, align 8
  br label %_ZN4pugi4impl12_GLOBAL__N_116remove_attributeEPNS_20xml_attribute_structEPNS_15xml_node_structE.exit.i

_ZN4pugi4impl12_GLOBAL__N_116remove_attributeEPNS_20xml_attribute_structEPNS_15xml_node_structE.exit.i: ; preds = %if.else.i.i, %if.end6.i
  %.sink.i.i = phi ptr [ %8, %if.else.i.i ], [ %6, %if.end6.i ]
  %prev_attribute_c2.i.i = getelementptr inbounds i8, ptr %.sink.i.i, i64 24
  store ptr %7, ptr %prev_attribute_c2.i.i, align 8
  %next_attribute3.i.i = getelementptr inbounds i8, ptr %7, i64 32
  %9 = load ptr, ptr %next_attribute3.i.i, align 8
  %tobool4.not.i.i = icmp eq ptr %9, null
  %first_attribute8.sink.i.i = select i1 %tobool4.not.i.i, ptr %first_attribute.i.i, ptr %next_attribute3.i.i
  store ptr %6, ptr %first_attribute8.sink.i.i, align 8
  call void @llvm.memset.p0.i64(ptr noundef nonnull align 8 dereferenceable(16) %prev_attribute_c.i.i, i8 0, i64 16, i1 false)
  call fastcc void @_ZN4pugi4impl12_GLOBAL__N_117destroy_attributeEPNS_20xml_attribute_structERNS1_13xml_allocatorE(ptr noundef nonnull %2, ptr noundef nonnull align 8 dereferenceable(16) %5)
  br label %_ZN4pugi8xml_node16remove_attributeERKNS_13xml_attributeE.exit

_ZN4pugi8xml_node16remove_attributeERKNS_13xml_attributeE.exit: ; preds = %_ZNK4pugi8xml_node9attributeEPKc.exit, %_ZN4pugi4impl12_GLOBAL__N_115is_attribute_ofEPNS_20xml_attribute_structEPNS_15xml_node_structE.exit.i, %_ZN4pugi4impl12_GLOBAL__N_116remove_attributeEPNS_20xml_attribute_structEPNS_15xml_node_structE.exit.i
  %retval.0.i = phi i1 [ true, %_ZN4pugi4impl12_GLOBAL__N_116remove_attributeEPNS_20xml_attribute_structEPNS_15xml_node_structE.exit.i ], [ false, %_ZNK4pugi8xml_node9attributeEPKc.exit ], [ false, %_ZN4pugi4impl12_GLOBAL__N_115is_attribute_ofEPNS_20xml_attribute_structEPNS_15xml_node_structE.exit.i ]
  ret i1 %retval.0.i
}